target datalayout = "e-m:e-p270:32:32-p271:32:32-p272:64:64-i64:64-i128:128-f80:128-n8:16:32:64-S128"
target triple = "x86_64-pc-linux-gnu"

; Function Attrs: mustprogress nounwind uwtable
define hidden noundef i32 @_ZN4cvc58internal6theory11quantifiers28getEnumeratorRoleForNodeRoleENS2_8NodeRoleE(i32 noundef %0) #6 {
  %2 = alloca i32, align 4
  %3 = alloca i32, align 4
  store i32 %0, ptr %3, align 4, !tbaa !16
  %4 = load i32, ptr %3, align 4, !tbaa !16
  switch i32 %4, label %9 [
    i32 1, label %5
    i32 2, label %6
    i32 3, label %7
    i32 4, label %8
  ]

5:                                                ; preds = %1
  store i32 1, ptr %2, align 4
  br label %11

6:                                                ; preds = %1
  store i32 3, ptr %2, align 4
  br label %11

7:                                                ; preds = %1
  store i32 3, ptr %2, align 4
  br label %11

8:                                                ; preds = %1
  store i32 2, ptr %2, align 4
  br label %11

9:                                                ; preds = %1
  br label %10

10:                                               ; preds = %9
  store i32 0, ptr %2, align 4
  br label %11

11:                                               ; preds = %10, %8, %7, %6, %5
  %12 = load i32, ptr %2, align 4
  ret i32 %12
}